target datalayout = "e-m:e-p270:32:32-p271:32:32-p272:64:64-i64:64-i128:128-f80:128-n8:16:32:64-S128"
target triple = "x86_64-pc-linux-gnu"

%struct.hb_unicode_funcs_t = type { %struct.hb_object_header_t, ptr, %struct.anon, %struct.anon.0, %struct.anon.1 }
%struct.hb_object_header_t = type { %struct.hb_reference_count_t, %struct.hb_atomic_int_t, %struct.hb_atomic_ptr_t }
%struct.hb_reference_count_t = type { %struct.hb_atomic_int_t }
%struct.hb_atomic_int_t = type { i32 }
%struct.hb_atomic_ptr_t = type { ptr }
%struct.anon = type { ptr, ptr, ptr, ptr, ptr, ptr, ptr, ptr }
%struct.anon.0 = type { ptr, ptr, ptr, ptr, ptr, ptr, ptr, ptr }
%struct.anon.1 = type { ptr, ptr, ptr, ptr, ptr, ptr, ptr, ptr }

; Function Attrs: mustprogress nounwind uwtable
define linkonce_odr hidden noundef i32 @_ZNK15hb_atomic_int_t11get_relaxedEv(ptr noundef nonnull align 4 dereferenceable(4) %0) #3 comdat align 2 {
  %2 = alloca ptr, align 8
  %3 = alloca i32, align 4
  store ptr %0, ptr %2, align 8
  %4 = load ptr, ptr %2, align 8
  %5 = getelementptr inbounds %struct.hb_atomic_int_t, ptr %4, i32 0, i32 0
  %6 = load atomic i32, ptr %5 monotonic, align 4
  store i32 %6, ptr %3, align 4
  %7 = load i32, ptr %3, align 4
  ret i32 %7
}

; Function Attrs: mustprogress uwtable
define linkonce_odr hidden noundef i32 @_ZNK15hb_atomic_int_tcviEv(ptr noundef nonnull align 4 dereferenceable(4) %0) #0 comdat align 2 {
  %2 = alloca ptr, align 8
  store ptr %0, ptr %2, align 8
  %3 = load ptr, ptr %2, align 8
  %4 = call noundef i32 @_ZNK15hb_atomic_int_t11get_relaxedEv(ptr noundef nonnull align 4 dereferenceable(4) %3)
  ret i32 %4
}

; Function Attrs: mustprogress uwtable
define internal noundef zeroext i1 @_ZL22hb_object_is_immutableI18hb_unicode_funcs_tEbPKT_(ptr noundef %0) #0 {
  %2 = alloca ptr, align 8
  store ptr %0, ptr %2, align 8
  %3 = load ptr, ptr %2, align 8
  %4 = getelementptr inbounds %struct.hb_unicode_funcs_t, ptr %3, i32 0, i32 0
  %5 = getelementptr inbounds %struct.hb_object_header_t, ptr %4, i32 0, i32 1
  %6 = call noundef i32 @_ZNK15hb_atomic_int_tcviEv(ptr noundef nonnull align 4 dereferenceable(4) %5)
  %7 = icmp ne i32 %6, 0
  %8 = xor i1 %7, true
  ret i1 %8
}

; Function Attrs: mustprogress uwtable
define hidden void @hb_unicode_funcs_set_decompose_func(ptr noundef %0, ptr noundef %1, ptr noundef %2, ptr noundef %3) #0 {
  %5 = alloca ptr, align 8
  %6 = alloca ptr, align 8
  %7 = alloca ptr, align 8
  %8 = alloca ptr, align 8
  store ptr %0, ptr %5, align 8
  store ptr %1, ptr %6, align 8
  store ptr %2, ptr %7, align 8
  store ptr %3, ptr %8, align 8
  %9 = load ptr, ptr %5, align 8
  %10 = call noundef zeroext i1 @_ZL22hb_object_is_immutableI18hb_unicode_funcs_tEbPKT_(ptr noundef %9)
  br i1 %10, label %11, label %12

11:                                               ; preds = %4
  br label %70

12:                                               ; preds = %4
  %13 = load ptr, ptr %6, align 8
  %14 = icmp ne ptr %13, null
  br i1 %14, label %28, label %15

15:                                               ; preds = %12
  %16 = load ptr, ptr %8, align 8
  %17 = icmp ne ptr %16, null
  br i1 %17, label %18, label %21

18:                                               ; preds = %15
  %19 = load ptr, ptr %8, align 8
  %20 = load ptr, ptr %7, align 8
  call void %19(ptr noundef %20)
  br label %21

21:                                               ; preds = %18, %15
  store ptr null, ptr %8, align 8
  %22 = load ptr, ptr %5, align 8
  %23 = getelementptr inbounds %struct.hb_unicode_funcs_t, ptr %22, i32 0, i32 1
  %24 = load ptr, ptr %23, align 8
  %25 = getelementptr inbounds %struct.hb_unicode_funcs_t, ptr %24, i32 0, i32 3
  %26 = getelementptr inbounds %struct.anon.0, ptr %25, i32 0, i32 6
  %27 = load ptr, ptr %26, align 8
  store ptr %27, ptr %7, align 8
  br label %28

28:                                               ; preds = %21, %12
  %29 = load ptr, ptr %5, align 8
  %30 = getelementptr inbounds %struct.hb_unicode_funcs_t, ptr %29, i32 0, i32 4
  %31 = getelementptr inbounds %struct.anon.1, ptr %30, i32 0, i32 6
  %32 = load ptr, ptr %31, align 8
  %33 = icmp ne ptr %32, null
  br i1 %33, label %34, label %43

34:                                               ; preds = %28
  %35 = load ptr, ptr %5, align 8
  %36 = getelementptr inbounds %struct.hb_unicode_funcs_t, ptr %35, i32 0, i32 4
  %37 = getelementptr inbounds %struct.anon.1, ptr %36, i32 0, i32 6
  %38 = load ptr, ptr %37, align 8
  %39 = load ptr, ptr %5, align 8
  %40 = getelementptr inbounds %struct.hb_unicode_funcs_t, ptr %39, i32 0, i32 3
  %41 = getelementptr inbounds %struct.anon.0, ptr %40, i32 0, i32 6
  %42 = load ptr, ptr %41, align 8
  call void %38(ptr noundef %42)
  br label %43

43:                                               ; preds = %34, %28
  %44 = load ptr, ptr %6, align 8
  %45 = icmp ne ptr %44, null
  br i1 %45, label %46, label %51

46:                                               ; preds = %43
  %47 = load ptr, ptr %6, align 8
  %48 = load ptr, ptr %5, align 8
  %49 = getelementptr inbounds %struct.hb_unicode_funcs_t, ptr %48, i32 0, i32 2
  %50 = getelementptr inbounds %struct.anon, ptr %49, i32 0, i32 6
  store ptr %47, ptr %50, align 8
  br label %61

51:                                               ; preds = %43
  %52 = load ptr, ptr %5, align 8
  %53 = getelementptr inbounds %struct.hb_unicode_funcs_t, ptr %52, i32 0, i32 1
  %54 = load ptr, ptr %53, align 8
  %55 = getelementptr inbounds %struct.hb_unicode_funcs_t, ptr %54, i32 0, i32 2
  %56 = getelementptr inbounds %struct.anon, ptr %55, i32 0, i32 6
  %57 = load ptr, ptr %56, align 8
  %58 = load ptr, ptr %5, align 8
  %59 = getelementptr inbounds %struct.hb_unicode_funcs_t, ptr %58, i32 0, i32 2
  %60 = getelementptr inbounds %struct.anon, ptr %59, i32 0, i32 6
  store ptr %57, ptr %60, align 8
  br label %61

61:                                               ; preds = %51, %46
  %62 = load ptr, ptr %7, align 8
  %63 = load ptr, ptr %5, align 8
  %64 = getelementptr inbounds %struct.hb_unicode_funcs_t, ptr %63, i32 0, i32 3
  %65 = getelementptr inbounds %struct.anon.0, ptr %64, i32 0, i32 6
  store ptr %62, ptr %65, align 8
  %66 = load ptr, ptr %8, align 8
  %67 = load ptr, ptr %5, align 8
  %68 = getelementptr inbounds %struct.hb_unicode_funcs_t, ptr %67, i32 0, i32 4
  %69 = getelementptr inbounds %struct.anon.1, ptr %68, i32 0, i32 6
  store ptr %66, ptr %69, align 8
  br label %76

70:                                               ; preds = %11
  %71 = load ptr, ptr %8, align 8
  %72 = icmp ne ptr %71, null
  br i1 %72, label %73, label %76

73:                                               ; preds = %70
  %74 = load ptr, ptr %8, align 8
  %75 = load ptr, ptr %7, align 8
  call void %74(ptr noundef %75)
  br label %76

76:                                               ; preds = %73, %70, %61
  ret void
}