; Function Attrs: mustprogress uwtable
define hidden void @hb_unicode_funcs_set_decompose_func(ptr nocapture noundef %0, ptr noundef %1, ptr noundef %2, ptr noundef %3) local_unnamed_addr #0 {
  %5 = getelementptr inbounds i8, ptr %0, i64 4
  %6 = load atomic i32, ptr %5 monotonic, align 4
  %.not.i = icmp eq i32 %6, 0
  br i1 %.not.i, label %30, label %7

7:                                                ; preds = %4
  %.not = icmp eq ptr %1, null
  br i1 %.not, label %8, label %15

8:                                                ; preds = %7
  %.not25 = icmp eq ptr %3, null
  br i1 %.not25, label %10, label %9

9:                                                ; preds = %8
  tail call void %3(ptr noundef %2)
  br label %10

10:                                               ; preds = %9, %8
  %11 = getelementptr inbounds i8, ptr %0, i64 16
  %12 = load ptr, ptr %11, align 8
  %13 = getelementptr inbounds i8, ptr %12, i64 136
  %14 = load ptr, ptr %13, align 8
  br label %15

15:                                               ; preds = %10, %7
  %.021 = phi ptr [ %2, %7 ], [ %14, %10 ]
  %.0 = phi ptr [ %3, %7 ], [ null, %10 ]
  %16 = getelementptr inbounds i8, ptr %0, i64 200
  %17 = load ptr, ptr %16, align 8
  %.not26 = icmp eq ptr %17, null
  br i1 %.not26, label %21, label %18

18:                                               ; preds = %15
  %19 = getelementptr inbounds i8, ptr %0, i64 136
  %20 = load ptr, ptr %19, align 8
  tail call void %17(ptr noundef %20)
  br label %21

21:                                               ; preds = %18, %15
  br i1 %.not, label %22, label %27

22:                                               ; preds = %21
  %23 = getelementptr inbounds i8, ptr %0, i64 16
  %24 = load ptr, ptr %23, align 8
  %25 = getelementptr inbounds i8, ptr %24, i64 72
  %26 = load ptr, ptr %25, align 8
  br label %27

27:                                               ; preds = %21, %22
  %.sink = phi ptr [ %26, %22 ], [ %1, %21 ]
  %28 = getelementptr inbounds i8, ptr %0, i64 72
  store ptr %.sink, ptr %28, align 8
  %29 = getelementptr inbounds i8, ptr %0, i64 136
  store ptr %.021, ptr %29, align 8
  store ptr %.0, ptr %16, align 8
  br label %32

30:                                               ; preds = %4
  %.not27 = icmp eq ptr %3, null
  br i1 %.not27, label %32, label %31

31:                                               ; preds = %30
  tail call void %3(ptr noundef %2)
  br label %32

32:                                               ; preds = %31, %30, %27
  ret void
}